(lp0
Vhttp://i.imgur.com/3lBU90y.jpg
p1
aVhttp://i.imgur.com/5zmBC0g.jpg
p2
aVhttp://i.imgur.com/HeiYb7g.jpg
p3
aVhttp://m.imgur.com/vfw62xm
p4
aVhttp://i.imgur.com/0lEFmzP.jpg
p5
aVhttp://i.imgur.com/HDW8tGr.jpg
p6
aVhttp://i.imgur.com/xBL4oh5.jpg
p7
aVhttp://i.imgur.com/j8s0L6Z.jpg
p8
aVhttp://i.imgur.com/o8PllSc.jpg
p9
aVhttp://i.imgur.com/AEeaVJ2.jpg
p10
aVhttp://i.imgur.com/Ri5XHSs.jpg
p11
aVhttp://i.imgur.com/iHiFGkk.jpg
p12
aVhttp://i.imgur.com/dAti1eW.jpg
p13
aVhttp://i.imgur.com/NRBEEHY.jpg
p14
aVhttp://i.imgur.com/9g6gMhW.jpg
p15
aVhttp://i.imgur.com/0Ns6UVk.jpg
p16
aVhttp://i.imgur.com/dt1wk1v.jpg
p17
aVhttp://i.imgur.com/OAHUWu4.jpg
p18
aVhttp://i.imgur.com/9jlVpvz.jpg
p19
aVhttp://i.imgur.com/GpBtsU5.jpg
p20
aVhttp://i.imgur.com/nOOCA.jpg
p21
aVhttp://i.imgur.com/VeEr3OB.jpg
p22
aVhttp://i.imgur.com/WDRKU8L.jpg
p23
aVhttp://i.imgur.com/xjfrbQu.jpg
p24
aVhttp://i.imgur.com/w5Nc9uA.jpg
p25
aVhttp://i.imgur.com/7W9lahQ.jpg
p26
aVhttp://i.imgur.com/mtLUpKX.jpg
p27
aVhttp://i.imgur.com/USV2kHu.jpg
p28
aVhttp://i.imgur.com/RWvcFv8.jpg
p29
aVhttp://i.imgur.com/cKXl5S7.jpg
p30
aVhttp://i.imgur.com/FE8bxuY.jpg
p31
aVhttp://i.imgur.com/2yTRMgx.jpg
p32
aVhttp://i.imgur.com/TIhD6Jt.jpg
p33
aVhttp://i.imgur.com/nxRCpv3.jpg
p34
a.