(lp0
Vhttp://i.imgur.com/zlVBaPI.jpg
p1
aVhttp://i.imgur.com/477BqiH.jpg
p2
aVhttp://i.imgur.com/fKnjik6.jpg
p3
aVhttp://i.imgur.com/tCOjWjL.jpg
p4
aVhttp://i.imgur.com/1US43Cd.jpg
p5
aVhttp://i.imgur.com/aNGzLSh.jpg
p6
aVhttp://i.imgur.com/4YBNkJ6.jpg
p7
aVhttp://i.imgur.com/cvR4rpe.jpg
p8
aVhttp://i.imgur.com/695zZ0i.jpg
p9
aVhttp://i.imgur.com/lswJa17.jpg
p10
aVhttp://i.imgur.com/Fkwd6v6.jpg
p11
aVhttp://i.imgur.com/f3t1dgO.jpg
p12
aVhttp://i.imgur.com/tZ9SFSM.jpg
p13
aVhttp://i.imgur.com/Ax4l0mO.jpg
p14
aVhttp://i.imgur.com/Ih0X0oh.jpg
p15
aVhttp://i.imgur.com/1HWCMa1.jpg
p16
aVhttp://i.imgur.com/t3UMO3R.jpg
p17
aVhttp://i.imgur.com/hQWQhvV.jpg
p18
aVhttp://i.imgur.com/EqWwZNl.png
p19
aVhttp://i.imgur.com/QTFjTgv.jpg
p20
aVhttp://i.imgur.com/r7lBtQc.jpg
p21
aVhttp://i.imgur.com/fjJtEyV.jpg
p22
aVhttp://i.imgur.com/0IVI37o.jpg
p23
aVhttp://i.imgur.com/zg54HXq.jpg
p24
aVhttp://i.imgur.com/6bhZ6ER.jpg
p25
aVhttp://i.imgur.com/IUMmutQ.jpg
p26
aVhttp://i.imgur.com/3Zc5FNS.jpg
p27
aVhttp://i.imgur.com/Z4kbGwZ.jpg
p28
aVhttp://i.imgur.com/nvQyaz1.jpg
p29
aVhttp://i.imgur.com/F6gRFqb.jpg?1
p30
aVhttp://i.imgur.com/20Lp2cP.jpg
p31
aVhttp://i.imgur.com/Ml4RiTU.jpg
p32
aVhttp://i.imgur.com/5k2LLi8.jpg
p33
aVhttp://i.imgur.com/83O309d.jpg
p34
aVhttp://i.imgur.com/HLSIX2H.jpg
p35
aVhttp://i.imgur.com/uYIcZZk.jpg
p36
aVhttp://i.imgur.com/sGhNRNY.jpg
p37
aVhttp://i.imgur.com/qMvJuKm.jpg
p38
aVhttp://i.imgur.com/N6gBEN6.jpg
p39
aVhttp://i.imgur.com/w2tvhlK.jpg
p40
aVhttp://i.imgur.com/j2AT9j7.jpg
p41
aVhttp://i.imgur.com/EJo2OIH.jpg
p42
aVhttp://i.imgur.com/4JqJQmx.jpg
p43
aVhttp://i.imgur.com/UqlxAt5.jpg
p44
aVhttp://i.imgur.com/45igX9M.jpg
p45
aVhttp://i.imgur.com/mDhZp3y.jpg
p46
aVhttp://i.imgur.com/lG4iaKc.jpg
p47
aVhttp://i.imgur.com/81Jc6nT.jpg
p48
aVhttp://i.imgur.com/EBIlSko.jpg
p49
aVhttp://i.imgur.com/5IkSyRs.jpg
p50
aVhttp://i.imgur.com/r82xlo8.jpg
p51
aVhttp://i.imgur.com/Um4SzU3.jpg
p52
aVhttp://i.imgur.com/uqKMKkX.jpg
p53
aVhttp://i.imgur.com/E0VS8Oz.jpg
p54
aVhttp://i.imgur.com/BvVOkNC.jpg
p55
aVhttp://i.imgur.com/kFU4Gye.jpg
p56
a.