(lp0
Vhttp://i.imgur.com/dA8fJbM.jpg
p1
aVhttp://i.imgur.com/dA8fJbM.jpg
p2
aVhttp://i.imgur.com/tlwJTpU.jpg
p3
aVhttp://i.imgur.com/tlwJTpU.jpg
p4
aVhttp://i.imgur.com/cNN2L9d.jpg
p5
aVhttp://i.imgur.com/cNN2L9d.jpg
p6
aVhttp://i.imgur.com/XaPzsrZ.jpg
p7
aVhttp://i.imgur.com/XaPzsrZ.jpg
p8
aVhttp://i.imgur.com/0QOCynZ.jpg
p9
aVhttp://i.imgur.com/0QOCynZ.jpg
p10
aVhttp://i.imgur.com/p7qfBIE.jpg
p11
aVhttp://i.imgur.com/p7qfBIE.jpg
p12
aVhttp://i.imgur.com/G9bV5AR.jpg
p13
aVhttp://i.imgur.com/G9bV5AR.jpg
p14
aVhttp://i.imgur.com/sXGyLu4.jpg
p15
aVhttp://i.imgur.com/sXGyLu4.jpg
p16
aVhttp://i.imgur.com/gHd24gM.jpg
p17
aVhttp://i.imgur.com/gHd24gM.jpg
p18
aVhttp://i.imgur.com/0IwPyGM.jpg
p19
aVhttp://i.imgur.com/0IwPyGM.jpg
p20
aVhttp://i.imgur.com/Fe2MvQl.jpg
p21
aVhttp://i.imgur.com/Fe2MvQl.jpg
p22
aVhttp://i.imgur.com/4eEmh2L.jpg
p23
aVhttp://i.imgur.com/4eEmh2L.jpg
p24
aVhttp://i.imgur.com/q3TwmP7.jpg
p25
aVhttp://i.imgur.com/q3TwmP7.jpg
p26
aVhttp://i.imgur.com/CcTMJkw.jpg
p27
aVhttp://i.imgur.com/CcTMJkw.jpg
p28
aVhttp://i.imgur.com/NS3FjGQ.jpg
p29
aVhttp://i.imgur.com/NS3FjGQ.jpg
p30
aVhttp://i.imgur.com/9djZft0.jpg
p31
aVhttp://i.imgur.com/9djZft0.jpg
p32
aVhttp://i.imgur.com/kRJTl.jpg
p33
aVhttp://i.imgur.com/kRJTl.jpg
p34
aVhttp://i.imgur.com/TwmPGOp.jpg
p35
aVhttp://i.imgur.com/TwmPGOp.jpg
p36
aVhttp://i.imgur.com/VmOSi6j.jpg
p37
aVhttp://i.imgur.com/VmOSi6j.jpg
p38
aVhttp://i.imgur.com/oMJPXrv.jpg
p39
aVhttp://i.imgur.com/oMJPXrv.jpg
p40
aVhttp://i.imgur.com/9IO13Sk.jpg
p41
aVhttp://i.imgur.com/9IO13Sk.jpg
p42
aVhttp://i.imgur.com/6Sm2Pj7.jpg
p43
aVhttp://i.imgur.com/6Sm2Pj7.jpg
p44
aVhttp://i.imgur.com/V2HLHPY.jpg
p45
aVhttp://i.imgur.com/V2HLHPY.jpg
p46
aVhttp://i.imgur.com/xDs9Rz4.jpg
p47
aVhttp://i.imgur.com/xDs9Rz4.jpg
p48
aVhttp://i.imgur.com/p7qfBIE.jpg
p49
aVhttp://i.imgur.com/p7qfBIE.jpg
p50
aVhttp://i.imgur.com/0QOCynZ.jpg
p51
aVhttp://i.imgur.com/0QOCynZ.jpg
p52
aVhttp://i.imgur.com/dA8fJbM.jpg
p53
aVhttp://i.imgur.com/dA8fJbM.jpg
p54
aVhttp://i.imgur.com/tlwJTpU.jpg
p55
aVhttp://i.imgur.com/tlwJTpU.jpg
p56
aVhttp://i.imgur.com/sXGyLu4.jpg
p57
aVhttp://i.imgur.com/sXGyLu4.jpg
p58
aVhttp://i.imgur.com/XaPzsrZ.jpg
p59
aVhttp://i.imgur.com/XaPzsrZ.jpg
p60
aVhttp://i.imgur.com/4HhQp0r.jpg
p61
aVhttp://i.imgur.com/4HhQp0r.jpg
p62
aVhttp://i.imgur.com/uW4p1aY.jpg
p63
aVhttp://i.imgur.com/uW4p1aY.jpg
p64
aVhttp://i.imgur.com/BEeZK4J.jpg
p65
aVhttp://i.imgur.com/BEeZK4J.jpg
p66
aVhttp://i.imgur.com/cNN2L9d.jpg
p67
aVhttp://i.imgur.com/cNN2L9d.jpg
p68
aVhttp://i.imgur.com/cI5fvqc.jpg
p69
aVhttp://i.imgur.com/cI5fvqc.jpg
p70
aVhttp://i.imgur.com/REEezyR.jpg
p71
aVhttp://i.imgur.com/REEezyR.jpg
p72
aVhttp://i.imgur.com/Jh1Edd1.jpg
p73
aVhttp://i.imgur.com/Jh1Edd1.jpg
p74
aVhttp://i.imgur.com/o3GKbFq.jpg
p75
aVhttp://i.imgur.com/o3GKbFq.jpg
p76
aVhttp://i.imgur.com/g2mCHOf.jpg
p77
aVhttp://i.imgur.com/g2mCHOf.jpg
p78
aVhttp://i.imgur.com/4855ecv.jpg
p79
aVhttp://i.imgur.com/uYIcZZk.jpg
p80
aVhttp://i.imgur.com/RY60U55.jpg
p81
aVhttp://i.imgur.com/w2tvhlK.jpg
p82
aVhttp://i.imgur.com/a45MnjG.jpg
p83
aVhttp://i.imgur.com/4JqJQmx.jpg
p84
aVhttp://i.imgur.com/EJo2OIH.jpg
p85
aVhttp://i.imgur.com/0n5ajAm.png
p86
aVhttp://i.imgur.com/5IkSyRs.jpg
p87
aVhttp://i.imgur.com/r82xlo8.jpg
p88
aVhttp://i.imgur.com/Um4SzU3.jpg
p89
aVhttp://i.imgur.com/uqKMKkX.jpg
p90
aVhttp://i.imgur.com/E0VS8Oz.jpg
p91
aVhttp://i.imgur.com/BvVOkNC.jpg
p92
aVhttp://i.imgur.com/kFU4Gye.jpg
p93
aVhttp://i.imgur.com/YEaC2Um.png?1
p94
aVhttp://i.imgur.com/kXIkjUv.jpg
p95
aVhttp://i.imgur.com/3SZNeGq.jpg
p96
aVhttp://i.imgur.com/4KTCADu.png
p97
aVhttp://i.imgur.com/IZKGA4R.jpg
p98
a.