(lp0
Vhttp://i.imgur.com/8MKVv5W.jpg
p1
aVhttp://i.imgur.com/LdKAPPJ.jpg
p2
aVhttp://i.imgur.com/Rl4m6e7.jpg
p3
aVhttp://i.imgur.com/3pRHNSd.jpg
p4
aVhttp://i.imgur.com/wQqTzJ5.jpg
p5
aVhttp://i.imgur.com/PgtY1TP.jpg
p6
aVhttp://i.imgur.com/HZiPN9z.jpg
p7
aVhttp://i.imgur.com/S9Jvlbf.jpg)
p8
aVhttp://i.imgur.com/bEc9Ebg.jpg
p9
aVhttp://i.imgur.com/yd5MYs8.jpg
p10
aVhttp://i.imgur.com/1OrONH8.png
p11
aVhttp://i.imgur.com/SRlYUz3.jpg
p12
aVhttp://i.imgur.com/4aXxjmL.jpg
p13
aVhttp://i.imgur.com/V0UrsAE.jpg
p14
aVhttp://i.imgur.com/4vfi0JR.jpg
p15
aVhttp://i.imgur.com/vQTrkfF.jpg
p16
aVhttp://i.imgur.com/ZuG1O1Q.jpg
p17
aVhttp://i.imgur.com/TaMQKha.jpg
p18
aVhttp://i.imgur.com/LWdPKbu.jpg
p19
aVhttp://i.imgur.com/8ENqu4T.jpg
p20
aVhttp://i.imgur.com/fXMGdkp.jpg
p21
aVhttp://i.imgur.com/gRD6Xji.jpg
p22
aVhttp://i.imgur.com/yLcba68.jpg
p23
aVhttps://i.imgur.com/PEVGUq9.jpg
p24
aVhttp://i.imgur.com/5T16V.jpg
p25
aVhttp://i.imgur.com/saUuEyU.jpg
p26
aVhttp://i.imgur.com/W3ap8NV.jpg
p27
aVhttp://i.imgur.com/XnIuU4Z.jpg
p28
aVhttp://i.imgur.com/ABJn7xQ.jpg
p29
aVhttp://i.imgur.com/8oZg0Mr.jpg
p30
aVhttp://i.imgur.com/6Joqzj3.jpg
p31
aVhttp://i.imgur.com/fUx6xQt.jpg
p32
aVhttp://i.imgur.com/FGbhGwv.jpg
p33
aVhttp://i.imgur.com/r6O96l4.jpg
p34
aVhttp://i.imgur.com/nySOBtb.jpg
p35
aVhttp://i.imgur.com/HLSIX2H.jpg
p36
aVhttp://i.imgur.com/j2AT9j7.jpg
p37
aVhttp://i.imgur.com/tOzb0dU.jpg
p38
aVhttp://i.imgur.com/sGhNRNY.jpg
p39
aVhttp://i.imgur.com/qMvJuKm.jpg
p40
aVhttp://i.imgur.com/RUwVUcS.jpg
p41
aVhttp://i.imgur.com/N6gBEN6.jpg
p42
aVhttp://i.imgur.com/yFmko1j.jpg
p43
aVhttp://i.imgur.com/EV6olxg.jpg
p44
aVhttp://i.imgur.com/Yz09hIG.jpg
p45
aVhttp://i.imgur.com/UqlxAt5.jpg
p46
aVhttp://i.imgur.com/45igX9M.jpg
p47
aVhttp://i.imgur.com/5N2W7jX.jpg
p48
aVhttp://i.imgur.com/6d31POA.jpg
p49
aVhttp://i.imgur.com/lLoKqum.jpg
p50
aVhttp://i.imgur.com/mDhZp3y.jpg
p51
aVhttp://i.imgur.com/81Jc6nT.jpg
p52
aVhttp://i.imgur.com/lG4iaKc.jpg
p53
aVhttp://i.imgur.com/EBIlSko.jpg
p54
aVhttp://i.imgur.com/5IkSyRs.jpg
p55
aVhttp://i.imgur.com/r82xlo8.jpg
p56
aVhttp://i.imgur.com/Um4SzU3.jpg
p57
aVhttp://i.imgur.com/uqKMKkX.jpg
p58
aVhttp://i.imgur.com/E0VS8Oz.jpg
p59
a.