(lp0
Vhttp://i.imgur.com/AaWnUqG.jpg
p1
aVhttp://i.imgur.com/MNyt9Gg.jpg
p2
aVhttp://i.imgur.com/vAiuZr1.jpg
p3
aVhttp://i.imgur.com/8FMJdxL.jpg
p4
aVhttp://i.imgur.com/baPDKmx.jpg
p5
aVhttp://i.imgur.com/pBeI59C.jpg
p6
aVhttp://i.imgur.com/EhJB5GO.jpg
p7
a.