(lp0
Vhttp://i.imgur.com/iptXuXX.jpg
p1
aVhttp://i.imgur.com/599lvlo.jpg
p2
aVhttp://i.imgur.com/CFkV28p.png
p3
aVhttp://i.imgur.com/GzhUAtN.jpg
p4
aVhttp://i.imgur.com/uzW1fdQ.jpg
p5
aVhttp://i.imgur.com/ma2avM0.jpg
p6
aVhttp://i.imgur.com/vrQvJli.jpg
p7
aVhttp://i.imgur.com/qo33qhE.jpg
p8
aVhttp://i.imgur.com/BQk9j8F.jpg
p9
aVhttp://i.imgur.com/LUHqjxD.jpg
p10
aVhttp://i.imgur.com/6Need3j.jpg
p11
aVhttp://i.imgur.com/SiF8Dm3.jpg?1
p12
aVhttp://i.imgur.com/Ltkj4K1.jpg
p13
aVhttp://i.imgur.com/8Rxjsqn.jpg
p14
aVhttp://i.imgur.com/3pyEhH6.jpg
p15
aVhttp://i.imgur.com/AAjevxR.jpg
p16
aVhttp://i.imgur.com/iLpaiTi.jpg
p17
aVhttp://i.imgur.com/QS02GN5.jpg
p18
aVhttp://i.imgur.com/E1GxShB.jpg
p19
aVhttp://i.imgur.com/UbQlSxj.jpg
p20
aVhttp://i.imgur.com/XCHNunG.jpg
p21
aVhttp://i.imgur.com/SuY19Ic.jpg?1
p22
aVhttp://i.imgur.com/UjOTz8Z.jpg
p23
aVhttp://i.imgur.com/IpZQAxr.jpg
p24
aVhttp://i.imgur.com/38eBomK.jpg
p25
aVhttp://i.imgur.com/PDFFiXU.jpg
p26
aVhttp://i.imgur.com/Lq5yeRt.jpg
p27
aVhttp://i.imgur.com/lwbyeEW.jpg
p28
aVhttp://i.imgur.com/H0e2kN4.jpg
p29
aVhttp://i.imgur.com/dSSYTmx.jpg
p30
aVhttp://i.imgur.com/VxDFHIo.jpg
p31
aVhttp://i.imgur.com/CkgC24b.jpg
p32
aVhttp://i.imgur.com/bXZIWWe.jpg
p33
aVhttp://i.imgur.com/a366JRe.jpg
p34
aVhttp://i.imgur.com/S5aLpZb.jpg
p35
aVhttp://i.imgur.com/RoCxCms.jpg
p36
aVhttp://i.imgur.com/Nf3W6P6.jpg
p37
aVhttp://i.imgur.com/cqWth57.jpg
p38
a.