(lp0
Vhttp://i.imgur.com/tlwJTpU.jpg
p1
aVhttp://i.imgur.com/XaPzsrZ.jpg
p2
aVhttp://i.imgur.com/0QOCynZ.jpg
p3
aVhttp://i.imgur.com/p7qfBIE.jpg
p4
aVhttp://i.imgur.com/sXGyLu4.jpg
p5
aVhttp://i.imgur.com/4HhQp0r.jpg
p6
aVhttp://i.imgur.com/uW4p1aY.jpg
p7
aVhttp://i.imgur.com/0IwPyGM.jpg
p8
aVhttp://i.imgur.com/Fe2MvQl.jpg
p9
aVhttp://i.imgur.com/K4l7h6W.jpg
p10
aVhttp://i.imgur.com/4eEmh2L.jpg
p11
aVhttp://i.imgur.com/HHEfdCt.jpg
p12
aVhttp://i.imgur.com/Jh1Edd1.jpg
p13
aVhttp://i.imgur.com/o3GKbFq.jpg
p14
aVhttp://i.imgur.com/BEeZK4J.jpg
p15
aVhttp://i.imgur.com/cI5fvqc.jpg
p16
aVhttp://i.imgur.com/q3TwmP7.jpg
p17
aVhttp://i.imgur.com/9djZft0.jpg
p18
aVhttp://i.imgur.com/kRJTl.jpg
p19
aVhttp://i.imgur.com/NS3FjGQ.jpg
p20
aVhttp://i.imgur.com/TwmPGOp.jpg
p21
aVhttp://i.imgur.com/oMJPXrv.jpg
p22
aVhttp://i.imgur.com/9IO13Sk.jpg
p23
aVhttp://i.imgur.com/6Sm2Pj7.jpg
p24
aVhttp://i.imgur.com/feEqvYx.jpg
p25
aVhttp://i.imgur.com/w1vqKbY.jpg
p26
aVhttp://i.imgur.com/V2HLHPY.jpg
p27
aVhttp://i.imgur.com/cPeuFX9.jpg
p28
aVhttp://i.imgur.com/O6jL8mq.jpg
p29
aVhttp://i.imgur.com/eZcBwAE.jpg
p30
aVhttp://i.imgur.com/HbejfXv.jpg
p31
aVhttp://i.imgur.com/86biegI.jpg
p32
aVhttp://i.imgur.com/dA8fJbM.jpg
p33
aVhttp://i.imgur.com/4855ecv.jpg
p34
aVhttp://i.imgur.com/uYIcZZk.jpg
p35
aVhttp://i.imgur.com/RY60U55.jpg
p36
aVhttp://i.imgur.com/w2tvhlK.jpg
p37
aVhttp://i.imgur.com/4JqJQmx.jpg
p38
aVhttp://i.imgur.com/EJo2OIH.jpg
p39
aVhttp://i.imgur.com/a45MnjG.jpg
p40
aVhttp://i.imgur.com/EBIlSko.jpg
p41
aVhttp://i.imgur.com/5IkSyRs.jpg
p42
aVhttp://i.imgur.com/r82xlo8.jpg
p43
aVhttp://i.imgur.com/Um4SzU3.jpg
p44
aVhttp://i.imgur.com/uqKMKkX.jpg
p45
aVhttp://i.imgur.com/E0VS8Oz.jpg
p46
aVhttp://i.imgur.com/BvVOkNC.jpg
p47
aVhttp://i.imgur.com/kFU4Gye.jpg
p48
aVhttp://i.imgur.com/YEaC2Um.png?1
p49
aVhttp://i.imgur.com/kXIkjUv.jpg
p50
aVhttp://i.imgur.com/3SZNeGq.jpg
p51
a.