(lp0
Vhttp://i.imgur.com/djkFu9A.jpg
p1
aVhttp://i.imgur.com/6bSPWXv.jpg
p2
aVhttp://i.imgur.com/Adusbif.jpg
p3
aVhttp://i.imgur.com/qMojzLN.jpg
p4
aVhttp://i.imgur.com/bmetcli.jpg?1
p5
aVhttp://i.imgur.com/S5MMQzG.jpg
p6
aVhttp://i.imgur.com/oSybqjc.jpg
p7
aVhttp://i.imgur.com/w0IzWRW.jpg
p8
aVhttp://i.imgur.com/NdGbVx2.jpg
p9
aVhttp://i.imgur.com/q2PwASg.jpg
p10
aVhttp://i.imgur.com/guTB0vP.jpg
p11
aVhttp://i.imgur.com/5hd2NfK.jpg
p12
aVhttp://i.imgur.com/xvPAMbr.jpg
p13
aVhttp://i.imgur.com/WSPScF8.jpg
p14
aVhttp://i.imgur.com/wz7VKwT.jpg
p15
aVhttp://i.imgur.com/SWxte30.png
p16
aVhttp://i.imgur.com/Ub6sR4k.png
p17
aVhttp://i.imgur.com/URnoAd0.jpg
p18
aVhttp://i.imgur.com/1Nbp9rq.jpg
p19
aVhttp://i.imgur.com/lAyRlVg.jpg
p20
aVhttp://i.imgur.com/BTFQYNJ.jpg
p21
aVhttp://i.imgur.com/UGOAHOp.png
p22
aVhttp://i.imgur.com/Hc0eM6l.jpg
p23
aVhttp://i.imgur.com/JIafQzE.jpg
p24
aVhttp://i.imgur.com/8v6wu6i.jpg
p25
aVhttp://i.imgur.com/q8qQ9xh.jpg
p26
aVhttp://i.imgur.com/SUuAvtR.jpg
p27
aVhttp://i.imgur.com/PEs1w8N.jpg
p28
aVhttp://i.imgur.com/6SwVWzQ.jpg
p29
aVhttp://i.imgur.com/lA8CQJb.jpg
p30
aVhttp://i.imgur.com/AASaouK.jpg
p31
aVhttp://i.imgur.com/LZ5bpMg.jpg
p32
a.