(lp0
Vhttp://i.imgur.com/1h6HZwT.jpg
p1
aVhttp://i.imgur.com/1h6HZwT.jpg
p2
aVhttp://i.imgur.com/V5xDHbp.jpg
p3
aVhttp://i.imgur.com/V5xDHbp.jpg
p4
aVhttp://i.imgur.com/ZpNe9ha.jpg
p5
aVhttp://i.imgur.com/ZpNe9ha.jpg
p6
aVhttp://i.imgur.com/7Jnr1vC.jpg
p7
aVhttp://i.imgur.com/7Jnr1vC.jpg
p8
aVhttp://i.imgur.com/wNranXm.jpg
p9
aVhttp://i.imgur.com/wNranXm.jpg
p10
aVhttp://i.imgur.com/lzJoxNa.jpg
p11
aVhttp://i.imgur.com/lzJoxNa.jpg
p12
aVhttp://i.imgur.com/hsbkY0X.jpg
p13
aVhttp://i.imgur.com/hsbkY0X.jpg
p14
aVhttp://i.imgur.com/TM5iRaO.jpg
p15
aVhttp://i.imgur.com/TM5iRaO.jpg
p16
aVhttp://i.imgur.com/5EiFuo6.jpg
p17
aVhttp://i.imgur.com/5EiFuo6.jpg
p18
aVhttp://i.imgur.com/e0DEMXQ.jpg
p19
aVhttp://i.imgur.com/e0DEMXQ.jpg
p20
aVhttp://i.imgur.com/BSBIAQF.jpg?1
p21
aVhttp://i.imgur.com/BSBIAQF.jpg?1
p22
aVhttp://i.imgur.com/cn7GVMR.jpg
p23
aVhttp://i.imgur.com/cn7GVMR.jpg
p24
aVhttp://i.imgur.com/Y3dfaEn.jpg
p25
aVhttp://i.imgur.com/Y3dfaEn.jpg
p26
aVhttp://i.imgur.com/g0uKFo5.jpg
p27
aVhttp://i.imgur.com/g0uKFo5.jpg
p28
aVhttp://i.imgur.com/5DQHFaB.jpg
p29
aVhttp://i.imgur.com/5DQHFaB.jpg
p30
aVhttp://i.imgur.com/azOXYUj.jpg
p31
aVhttp://i.imgur.com/azOXYUj.jpg
p32
aVhttp://i.imgur.com/6kWMYqB.jpg
p33
aVhttp://i.imgur.com/6kWMYqB.jpg
p34
aVhttp://i.imgur.com/xTOQCEN.jpg
p35
aVhttp://i.imgur.com/xTOQCEN.jpg
p36
aVhttp://i.imgur.com/hycv8FH.jpg
p37
aVhttp://i.imgur.com/hycv8FH.jpg
p38
aVhttp://i.imgur.com/NPqGshJ.jpg
p39
aVhttp://i.imgur.com/NPqGshJ.jpg
p40
aVhttp://i.imgur.com/CC0FwYJ.jpg
p41
aVhttp://i.imgur.com/CC0FwYJ.jpg
p42
aVhttp://i.imgur.com/V2Dw6aM.png
p43
aVhttp://i.imgur.com/V2Dw6aM.png
p44
aVhttp://i.imgur.com/Nq237qS.jpg
p45
aVhttp://i.imgur.com/Nq237qS.jpg
p46
aVhttp://i.imgur.com/8qnbyes.jpg
p47
aVhttp://i.imgur.com/8qnbyes.jpg
p48
aVhttp://i.imgur.com/sNPObdH.jpg
p49
aVhttp://i.imgur.com/sNPObdH.jpg
p50
aVhttp://i.imgur.com/H2sMjiK.jpg
p51
aVhttp://i.imgur.com/H2sMjiK.jpg
p52
aVhttp://i.imgur.com/7Y5zee2.jpg
p53
aVhttp://i.imgur.com/7Y5zee2.jpg
p54
aVhttp://i.imgur.com/xmRJETX.jpg?1
p55
aVhttp://i.imgur.com/xmRJETX.jpg?1
p56
aVhttp://i.imgur.com/SSvuJX6.jpg
p57
aVhttp://i.imgur.com/SSvuJX6.jpg
p58
aVhttp://i.imgur.com/JNbkowu.jpg
p59
aVhttp://i.imgur.com/JNbkowu.jpg
p60
aVhttp://i.imgur.com/MqcmlOe.jpg?2
p61
aVhttp://i.imgur.com/MqcmlOe.jpg?2
p62
aVhttp://i.imgur.com/J5PMmGF.jpg
p63
aVhttp://i.imgur.com/J5PMmGF.jpg
p64
aVhttp://i.imgur.com/EAiHd5S.jpg
p65
aVhttp://i.imgur.com/EAiHd5S.jpg
p66
aVhttp://i.imgur.com/T18h9rr.jpg?1
p67
aVhttp://i.imgur.com/T18h9rr.jpg?1
p68
aVhttp://i.imgur.com/zsDI1CX.jpg
p69
aVhttp://i.imgur.com/zsDI1CX.jpg
p70
aVhttp://i.imgur.com/ZEYOjJw.jpg
p71
aVhttp://i.imgur.com/ZEYOjJw.jpg
p72
aVhttp://i.imgur.com/x6tcdAw.jpg
p73
aVhttp://i.imgur.com/x6tcdAw.jpg
p74
aVhttp://i.imgur.com/HZl1iZT.jpg
p75
aVhttp://i.imgur.com/HZl1iZT.jpg
p76
aVhttp://i.imgur.com/owh5StQ.jpg
p77
aVhttp://i.imgur.com/owh5StQ.jpg
p78
aVhttp://i.imgur.com/rVEfpV5.jpg
p79
aVhttp://i.imgur.com/W3lqkuC.jpg
p80
aVhttp://i.imgur.com/Xspp1w2.jpg
p81
aVhttp://i.imgur.com/YfuwayA.jpg
p82
aVhttp://i.imgur.com/sTa8i0D.jpg
p83
aVhttp://i.imgur.com/cKz8ehH.jpg
p84
aVhttp://i.imgur.com/a45MnjG.jpg
p85
aVhttp://i.imgur.com/RY60U55.jpg
p86
aVhttp://i.imgur.com/uqKMKkX.jpg
p87
aVhttp://i.imgur.com/Um4SzU3.jpg
p88
aVhttp://i.imgur.com/E0VS8Oz.jpg
p89
aVhttp://i.imgur.com/BvVOkNC.jpg
p90
aVhttp://i.imgur.com/kFU4Gye.jpg
p91
aVhttp://i.imgur.com/YEaC2Um.png?1
p92
aVhttp://i.imgur.com/kXIkjUv.jpg
p93
aVhttp://i.imgur.com/3SZNeGq.jpg
p94
aVhttp://i.imgur.com/4KTCADu.png
p95
aVhttp://i.imgur.com/IZKGA4R.jpg
p96
aVhttp://i.imgur.com/2oC2OWt.jpg
p97
aVhttp://i.imgur.com/vcLkm8z.jpg
p98
aVhttp://i.imgur.com/SirRbLc.jpg
p99
a.