(lp0
Vhttp://i.imgur.com/sOchYSZ.jpg
p1
aVhttp://i.imgur.com/sOchYSZ.jpg
p2
aVhttp://i.imgur.com/vQcsD6C.jpg
p3
aVhttp://i.imgur.com/vQcsD6C.jpg
p4
aVhttp://i.imgur.com/V6OkZja.jpg
p5
aVhttp://i.imgur.com/V6OkZja.jpg
p6
aVhttp://i.imgur.com/IanmyBN.jpg
p7
aVhttp://i.imgur.com/IanmyBN.jpg
p8
aVhttp://i.imgur.com/SpiasU9.jpg
p9
aVhttp://i.imgur.com/SpiasU9.jpg
p10
aVhttp://i.imgur.com/oiUsnGw.jpg
p11
aVhttp://i.imgur.com/oiUsnGw.jpg
p12
aVhttp://i.imgur.com/WkhTHl1.jpg
p13
aVhttp://i.imgur.com/WkhTHl1.jpg
p14
aVhttp://i.imgur.com/Y28B5eG.jpg
p15
aVhttp://i.imgur.com/Y28B5eG.jpg
p16
aVhttp://i.imgur.com/gkR9Rk8.jpg
p17
aVhttp://i.imgur.com/gkR9Rk8.jpg
p18
aVhttp://i.imgur.com/cRbfZwM.jpg
p19
aVhttp://i.imgur.com/cRbfZwM.jpg
p20
aVhttp://i.imgur.com/K1cSTIX.jpg
p21
aVhttp://i.imgur.com/K1cSTIX.jpg
p22
aVhttp://i.imgur.com/BoMa14z.jpg
p23
aVhttp://i.imgur.com/BoMa14z.jpg
p24
aVhttp://i.imgur.com/g1JsbKX.jpg
p25
aVhttp://i.imgur.com/g1JsbKX.jpg
p26
aVhttp://i.imgur.com/dWC46tk.jpg
p27
aVhttp://i.imgur.com/dWC46tk.jpg
p28
aVhttp://i.imgur.com/cZazKEG.jpg
p29
aVhttp://i.imgur.com/cZazKEG.jpg
p30
aVhttp://i.imgur.com/hVIbxih.jpg?1
p31
aVhttp://i.imgur.com/hVIbxih.jpg?1
p32
aVhttp://i.imgur.com/23mHIPv.jpg
p33
aVhttp://i.imgur.com/23mHIPv.jpg
p34
aVhttp://i.imgur.com/SUwociT.jpg
p35
aVhttp://i.imgur.com/SUwociT.jpg
p36
aVhttp://i.imgur.com/7KRdD3y.jpg
p37
aVhttp://i.imgur.com/7KRdD3y.jpg
p38
aVhttp://i.imgur.com/q5K8cHM.jpg
p39
aVhttp://i.imgur.com/q5K8cHM.jpg
p40
aVhttp://i.imgur.com/u0ho6kJ.jpg
p41
aVhttp://i.imgur.com/u0ho6kJ.jpg
p42
aVhttp://i.imgur.com/hf77NJf.jpg
p43
aVhttp://i.imgur.com/hf77NJf.jpg
p44
aVhttp://i.imgur.com/xHG7fXT.jpg
p45
aVhttp://i.imgur.com/xHG7fXT.jpg
p46
aVhttp://i.imgur.com/RiSpuC7.jpg
p47
aVhttp://i.imgur.com/RiSpuC7.jpg
p48
aVhttp://i.imgur.com/Hu1gC7H.jpg
p49
aVhttp://i.imgur.com/Hu1gC7H.jpg
p50
aVhttp://i.imgur.com/GmZ48iv.jpg
p51
aVhttp://i.imgur.com/GmZ48iv.jpg
p52
aVhttp://i.imgur.com/kFb7EpU.jpg
p53
aVhttp://i.imgur.com/kFb7EpU.jpg
p54
aVhttp://i.imgur.com/maC1HTq.jpg
p55
aVhttp://i.imgur.com/maC1HTq.jpg
p56
aVhttp://i.imgur.com/swRxtsC.png
p57
aVhttp://i.imgur.com/swRxtsC.png
p58
aVhttp://i.imgur.com/VvzJTaA.jpg
p59
aVhttp://i.imgur.com/VvzJTaA.jpg
p60
aVhttp://i.imgur.com/V6OkZja.jpg
p61
aVhttp://i.imgur.com/V6OkZja.jpg
p62
aVhttp://i.imgur.com/sOchYSZ.jpg
p63
aVhttp://i.imgur.com/sOchYSZ.jpg
p64
aVhttp://i.imgur.com/oiUsnGw.jpg
p65
aVhttp://i.imgur.com/oiUsnGw.jpg
p66
aVhttp://i.imgur.com/tsqbeSD.jpg
p67
aVhttp://i.imgur.com/tsqbeSD.jpg
p68
aVhttp://i.imgur.com/pcRP56V.jpg
p69
aVhttp://i.imgur.com/pcRP56V.jpg
p70
aVhttp://i.imgur.com/vQcsD6C.jpg
p71
aVhttp://i.imgur.com/vQcsD6C.jpg
p72
aVhttp://i.imgur.com/WkhTHl1.jpg
p73
aVhttp://i.imgur.com/WkhTHl1.jpg
p74
aVhttp://i.imgur.com/47LLAyw.jpg
p75
aVhttp://i.imgur.com/47LLAyw.jpg
p76
aVhttp://i.imgur.com/SpiasU9.jpg
p77
aVhttp://i.imgur.com/SpiasU9.jpg
p78
aVhttp://i.imgur.com/IanmyBN.jpg
p79
aVhttp://i.imgur.com/IanmyBN.jpg
p80
aVhttp://i.imgur.com/GZLK33f.jpg
p81
aVhttp://i.imgur.com/GZLK33f.jpg
p82
aVhttp://i.imgur.com/Y28B5eG.jpg
p83
aVhttp://i.imgur.com/Y28B5eG.jpg
p84
aVhttp://i.imgur.com/K1cSTIX.jpg
p85
aVhttp://i.imgur.com/K1cSTIX.jpg
p86
aVhttp://i.imgur.com/gkR9Rk8.jpg
p87
aVhttp://i.imgur.com/gkR9Rk8.jpg
p88
aVhttp://i.imgur.com/nfbJdTS.jpg
p89
aVhttp://i.imgur.com/nfbJdTS.jpg
p90
aVhttp://i.imgur.com/4855ecv.jpg
p91
aVhttp://i.imgur.com/YfuwayA.jpg
p92
aVhttp://i.imgur.com/RY60U55.jpg
p93
aVhttp://i.imgur.com/a45MnjG.jpg
p94
aVhttp://i.imgur.com/5IkSyRs.jpg
p95
aVhttp://i.imgur.com/r82xlo8.jpg
p96
aVhttp://i.imgur.com/Um4SzU3.jpg
p97
aVhttp://i.imgur.com/uqKMKkX.jpg
p98
aVhttp://i.imgur.com/E0VS8Oz.jpg
p99
aVhttp://i.imgur.com/BvVOkNC.jpg
p100
aVhttp://i.imgur.com/kFU4Gye.jpg
p101
aVhttp://i.imgur.com/YEaC2Um.png?1
p102
aVhttp://i.imgur.com/kXIkjUv.jpg
p103
aVhttp://i.imgur.com/3SZNeGq.jpg
p104
aVhttp://i.imgur.com/4KTCADu.png
p105
aVhttp://i.imgur.com/IZKGA4R.jpg
p106
a.