(lp0
Vhttp://i.imgur.com/fwA6u7f.jpg
p1
aVhttp://i.imgur.com/fwA6u7f.jpg
p2
aVhttp://i.imgur.com/0I663IH.jpg
p3
aVhttp://i.imgur.com/0I663IH.jpg
p4
aVhttp://i.imgur.com/7mvj9tX.jpg
p5
aVhttp://i.imgur.com/7mvj9tX.jpg
p6
aVhttp://i.imgur.com/REEezyR.jpg
p7
aVhttp://i.imgur.com/REEezyR.jpg
p8
aVhttp://i.imgur.com/92OpYts.jpg
p9
aVhttp://i.imgur.com/92OpYts.jpg
p10
aVhttp://i.imgur.com/vMdiIu3.jpg
p11
aVhttp://i.imgur.com/vMdiIu3.jpg
p12
aVhttp://i.imgur.com/cNN2L9d.jpg
p13
aVhttp://i.imgur.com/cNN2L9d.jpg
p14
aVhttp://i.imgur.com/gHd24gM.jpg
p15
aVhttp://i.imgur.com/gHd24gM.jpg
p16
aVhttp://i.imgur.com/7vpd9az.jpg
p17
aVhttp://i.imgur.com/7vpd9az.jpg
p18
aVhttp://i.imgur.com/SQ7HLDb.jpg
p19
aVhttp://i.imgur.com/SQ7HLDb.jpg
p20
aVhttp://i.imgur.com/w7IHLeu.jpg
p21
aVhttp://i.imgur.com/w7IHLeu.jpg
p22
aVhttp://i.imgur.com/k860Hj3.jpg
p23
aVhttp://i.imgur.com/k860Hj3.jpg
p24
aVhttp://i.imgur.com/CfZM4nK.jpg
p25
aVhttp://i.imgur.com/CfZM4nK.jpg
p26
aVhttp://i.imgur.com/MiMl63c.jpg
p27
aVhttp://i.imgur.com/MiMl63c.jpg
p28
aVhttp://i.imgur.com/J9Rlxm7.jpg
p29
aVhttp://i.imgur.com/J9Rlxm7.jpg
p30
aVhttp://i.imgur.com/qxNin47.jpg
p31
aVhttp://i.imgur.com/qxNin47.jpg
p32
aVhttp://i.imgur.com/jCdxN7m.jpg
p33
aVhttp://i.imgur.com/jCdxN7m.jpg
p34
aVhttp://i.imgur.com/dA8fJbM.jpg
p35
aVhttp://i.imgur.com/dA8fJbM.jpg
p36
aVhttp://i.imgur.com/cNN2L9d.jpg
p37
aVhttp://i.imgur.com/cNN2L9d.jpg
p38
aVhttp://i.imgur.com/tlwJTpU.jpg
p39
aVhttp://i.imgur.com/tlwJTpU.jpg
p40
aVhttp://i.imgur.com/REEezyR.jpg
p41
aVhttp://i.imgur.com/REEezyR.jpg
p42
aVhttp://i.imgur.com/0I663IH.jpg
p43
aVhttp://i.imgur.com/0I663IH.jpg
p44
aVhttp://i.imgur.com/7mvj9tX.jpg
p45
aVhttp://i.imgur.com/7mvj9tX.jpg
p46
aVhttp://i.imgur.com/vMdiIu3.jpg
p47
aVhttp://i.imgur.com/vMdiIu3.jpg
p48
aVhttp://i.imgur.com/XaPzsrZ.jpg
p49
aVhttp://i.imgur.com/XaPzsrZ.jpg
p50
aVhttp://i.imgur.com/92OpYts.jpg
p51
aVhttp://i.imgur.com/92OpYts.jpg
p52
aVhttp://i.imgur.com/fwA6u7f.jpg
p53
aVhttp://i.imgur.com/fwA6u7f.jpg
p54
aVhttp://i.imgur.com/G9bV5AR.jpg
p55
aVhttp://i.imgur.com/G9bV5AR.jpg
p56
aVhttp://i.imgur.com/gHd24gM.jpg
p57
aVhttp://i.imgur.com/gHd24gM.jpg
p58
aVhttp://i.imgur.com/4eEmh2L.jpg
p59
aVhttp://i.imgur.com/4eEmh2L.jpg
p60
aVhttp://i.imgur.com/gLhemgS.jpg
p61
aVhttp://i.imgur.com/gLhemgS.jpg
p62
aVhttp://i.imgur.com/0IwPyGM.jpg
p63
aVhttp://i.imgur.com/0IwPyGM.jpg
p64
aVhttp://i.imgur.com/pcRP56V.jpg
p65
aVhttp://i.imgur.com/pcRP56V.jpg
p66
aVhttp://i.imgur.com/ocse18b.jpg
p67
aVhttp://i.imgur.com/ocse18b.jpg
p68
aVhttp://i.imgur.com/4855ecv.jpg
p69
aVhttp://i.imgur.com/RY60U55.jpg
p70
aVhttp://i.imgur.com/w2tvhlK.jpg
p71
aVhttp://i.imgur.com/a45MnjG.jpg
p72
aVhttp://i.imgur.com/uYIcZZk.jpg
p73
aVhttp://i.imgur.com/EJo2OIH.jpg
p74
aVhttp://i.imgur.com/4JqJQmx.jpg
p75
aVhttp://i.imgur.com/0n5ajAm.png
p76
aVhttp://i.imgur.com/5IkSyRs.jpg
p77
aVhttp://i.imgur.com/r82xlo8.jpg
p78
aVhttp://i.imgur.com/Um4SzU3.jpg
p79
aVhttp://i.imgur.com/uqKMKkX.jpg
p80
aVhttp://i.imgur.com/E0VS8Oz.jpg
p81
aVhttp://i.imgur.com/BvVOkNC.jpg
p82
aVhttp://i.imgur.com/kFU4Gye.jpg
p83
aVhttp://i.imgur.com/YEaC2Um.png?1
p84
aVhttp://i.imgur.com/kXIkjUv.jpg
p85
aVhttp://i.imgur.com/3SZNeGq.jpg
p86
aVhttp://i.imgur.com/4KTCADu.png
p87
aVhttp://i.imgur.com/IZKGA4R.jpg
p88
a.