(lp0
Vhttp://i.imgur.com/cB9X9v2.jpg
p1
aVhttp://i.imgur.com/cB9X9v2.jpg
p2
aVhttp://i.imgur.com/bUq1pah.jpg
p3
aVhttp://i.imgur.com/bUq1pah.jpg
p4
aVhttp://i.imgur.com/CDyMKu6.jpg
p5
aVhttp://i.imgur.com/CDyMKu6.jpg
p6
aVhttp://i.imgur.com/7NfQp79.jpg
p7
aVhttp://i.imgur.com/7NfQp79.jpg
p8
aVhttp://i.imgur.com/Ks1p0OQ.jpg
p9
aVhttp://i.imgur.com/Ks1p0OQ.jpg
p10
aVhttp://i.imgur.com/vav595a.png
p11
aVhttp://i.imgur.com/vav595a.png
p12
aVhttp://i.imgur.com/4KwRYRb.png
p13
aVhttp://i.imgur.com/4KwRYRb.png
p14
aVhttp://i.imgur.com/lOdbEhK.jpg
p15
aVhttp://i.imgur.com/lOdbEhK.jpg
p16
aVhttp://i.imgur.com/G9LqTrS.jpg
p17
aVhttp://i.imgur.com/G9LqTrS.jpg
p18
aVhttp://i.imgur.com/GvnRJL9.jpg
p19
aVhttp://i.imgur.com/GvnRJL9.jpg
p20
aVhttp://i.imgur.com/mn9XrgF.jpg
p21
aVhttp://i.imgur.com/mn9XrgF.jpg
p22
aVhttp://i.imgur.com/v36be3N.jpg
p23
aVhttp://i.imgur.com/v36be3N.jpg
p24
aVhttp://i.imgur.com/JDwMYze.jpg
p25
aVhttp://i.imgur.com/JDwMYze.jpg
p26
aVhttp://i.imgur.com/nvn6FHk.jpg
p27
aVhttp://i.imgur.com/nvn6FHk.jpg
p28
aVhttp://i.imgur.com/qxBbr25.jpg
p29
aVhttp://i.imgur.com/qxBbr25.jpg
p30
aVhttp://i.imgur.com/qQ48odu.jpg
p31
aVhttp://i.imgur.com/qQ48odu.jpg
p32
aVhttp://i.imgur.com/BiIxoPO.jpg
p33
aVhttp://i.imgur.com/BiIxoPO.jpg
p34
aVhttp://i.imgur.com/Ypcg2ei.jpg
p35
aVhttp://i.imgur.com/Ypcg2ei.jpg
p36
aVhttp://i.imgur.com/LqXbQMQ.jpg
p37
aVhttp://i.imgur.com/LqXbQMQ.jpg
p38
aVhttp://i.imgur.com/shS9BFa.jpg
p39
aVhttp://i.imgur.com/shS9BFa.jpg
p40
aVhttp://www.imgur.com/rAdQ5Io
p41
aVhttp://www.imgur.com/rAdQ5Io
p42
aVhttp://i.imgur.com/M7qpqdo.jpg
p43
aVhttp://i.imgur.com/M7qpqdo.jpg
p44
aVhttp://i.imgur.com/hwvClF8.jpg
p45
aVhttp://i.imgur.com/hwvClF8.jpg
p46
aVhttp://i.imgur.com/n86fvAx.jpg
p47
aVhttp://i.imgur.com/n86fvAx.jpg
p48
aVhttp://i.imgur.com/yfTYFdI.jpg
p49
aVhttp://i.imgur.com/yfTYFdI.jpg
p50
aVhttp://i.imgur.com/cB9X9v2.jpg
p51
aVhttp://i.imgur.com/cB9X9v2.jpg
p52
aVhttp://i.imgur.com/CDyMKu6.jpg
p53
aVhttp://i.imgur.com/CDyMKu6.jpg
p54
aVhttp://i.imgur.com/bUq1pah.jpg
p55
aVhttp://i.imgur.com/bUq1pah.jpg
p56
aVhttp://i.imgur.com/4KwRYRb.png
p57
aVhttp://i.imgur.com/4KwRYRb.png
p58
aVhttp://i.imgur.com/vav595a.png
p59
aVhttp://i.imgur.com/vav595a.png
p60
aVhttp://i.imgur.com/Ks1p0OQ.jpg
p61
aVhttp://i.imgur.com/Ks1p0OQ.jpg
p62
aVhttp://i.imgur.com/G9LqTrS.jpg
p63
aVhttp://i.imgur.com/G9LqTrS.jpg
p64
aVhttp://i.imgur.com/JANyRAd.jpg
p65
aVhttp://i.imgur.com/JANyRAd.jpg
p66
aVhttp://i.imgur.com/lOdbEhK.jpg
p67
aVhttp://i.imgur.com/lOdbEhK.jpg
p68
aVhttp://i.imgur.com/m9CSHbF.jpg
p69
aVhttp://i.imgur.com/m9CSHbF.jpg
p70
aVhttp://i.imgur.com/CkzIs5S.png
p71
aVhttp://i.imgur.com/CkzIs5S.png
p72
aVhttp://i.imgur.com/YfuwayA.jpg
p73
aVhttp://i.imgur.com/RY60U55.jpg
p74
aVhttp://i.imgur.com/4855ecv.jpg
p75
aVhttp://i.imgur.com/a45MnjG.jpg
p76
aVhttp://i.imgur.com/r82xlo8.jpg
p77
aVhttp://i.imgur.com/Um4SzU3.jpg
p78
aVhttp://i.imgur.com/uqKMKkX.jpg
p79
aVhttp://i.imgur.com/E0VS8Oz.jpg
p80
aVhttp://i.imgur.com/BvVOkNC.jpg
p81
aVhttp://i.imgur.com/kFU4Gye.jpg
p82
aVhttp://i.imgur.com/YEaC2Um.png?1
p83
aVhttp://i.imgur.com/kXIkjUv.jpg
p84
aVhttp://i.imgur.com/3SZNeGq.jpg
p85
aVhttp://i.imgur.com/4KTCADu.png
p86
aVhttp://i.imgur.com/IZKGA4R.jpg
p87
aVhttp://i.imgur.com/2oC2OWt.jpg
p88
aVhttp://i.imgur.com/vcLkm8z.jpg
p89
a.