(lp0
Vhttp://i.imgur.com/Z4kbGwZ.jpg
p1
aVhttp://i.imgur.com/zlVBaPI.jpg
p2
aVhttp://i.imgur.com/1US43Cd.jpg
p3
aVhttp://i.imgur.com/695zZ0i.jpg
p4
aVhttp://i.imgur.com/477BqiH.jpg
p5
aVhttp://i.imgur.com/Fkwd6v6.jpg
p6
aVhttp://i.imgur.com/fKnjik6.jpg
p7
aVhttp://i.imgur.com/uBbNclB.jpg
p8
aVhttp://i.imgur.com/K50tRXW.jpg
p9
aVhttp://i.imgur.com/nvQyaz1.jpg
p10
aVhttp://i.imgur.com/Thc0Djf.jpg
p11
aVhttp://i.imgur.com/jjVPKPA.jpeg
p12
aVhttp://i.imgur.com/xGsu7wn.jpg
p13
aVhttp://i.imgur.com/wc2ADc1.jpg
p14
aVhttp://i.imgur.com/hwjw049.jpg
p15
aVhttp://i.imgur.com/ApvEb5D.jpg
p16
aVhttp://i.imgur.com/3LopekE.jpg
p17
aVhttp://i.imgur.com/azB5cJf.jpg
p18
aVhttp://i.imgur.com/Ax4l0mO.jpg
p19
aVhttp://i.imgur.com/1HWCMa1.jpg
p20
aVhttp://i.imgur.com/fjJtEyV.jpg
p21
aVhttp://i.imgur.com/hQWQhvV.jpg
p22
aVhttp://i.imgur.com/EqWwZNl.png
p23
aVhttp://i.imgur.com/0n0bZ6u.jpg
p24
aVhttp://i.imgur.com/6bhZ6ER.jpg
p25
aVhttp://i.imgur.com/zg54HXq.jpg
p26
aVhttp://i.imgur.com/0IVI37o.jpg
p27
aVhttp://i.imgur.com/bDMiIb5.jpg
p28
aVhttp://i.imgur.com/SSZw0he.jpg
p29
aVhttp://i.imgur.com/IUMmutQ.jpg
p30
aVhttp://i.imgur.com/OPNLklK.jpg
p31
aVhttp://i.imgur.com/VtSUmzw.jpg
p32
aVhttp://i.imgur.com/HLSIX2H.jpg
p33
aVhttp://i.imgur.com/j2AT9j7.jpg
p34
aVhttp://i.imgur.com/uYIcZZk.jpg
p35
aVhttp://i.imgur.com/sGhNRNY.jpg
p36
aVhttp://i.imgur.com/qMvJuKm.jpg
p37
aVhttp://i.imgur.com/N6gBEN6.jpg
p38
aVhttp://i.imgur.com/w2tvhlK.jpg
p39
aVhttp://i.imgur.com/EJo2OIH.jpg
p40
aVhttp://i.imgur.com/4JqJQmx.jpg
p41
aVhttp://i.imgur.com/EV6olxg.jpg
p42
aVhttp://i.imgur.com/UqlxAt5.jpg
p43
aVhttp://i.imgur.com/45igX9M.jpg
p44
aVhttp://i.imgur.com/nySOBtb.jpg
p45
aVhttp://i.imgur.com/mDhZp3y.jpg
p46
aVhttp://i.imgur.com/lG4iaKc.jpg
p47
aVhttp://i.imgur.com/81Jc6nT.jpg
p48
aVhttp://i.imgur.com/EBIlSko.jpg
p49
aVhttp://i.imgur.com/5IkSyRs.jpg
p50
aVhttp://i.imgur.com/r82xlo8.jpg
p51
aVhttp://i.imgur.com/Um4SzU3.jpg
p52
aVhttp://i.imgur.com/uqKMKkX.jpg
p53
aVhttp://i.imgur.com/E0VS8Oz.jpg
p54
aVhttp://i.imgur.com/BvVOkNC.jpg
p55
aVhttp://i.imgur.com/kFU4Gye.jpg
p56
a.